; Function Attrs: null_pointer_is_valid sspstrong uwtable
define internal i32 @dissect_ProtocolIEFieldValue(ptr noundef %0, ptr noundef %1, ptr noundef %2, ptr readnone captures(none) %3) #0 {
  %5 = alloca %struct.e1ap_ctx_t, align 4
  call void @llvm.lifetime.start.p0(i64 16, ptr nonnull %5) #6
  %6 = getelementptr inbounds nuw i8, ptr %1, i64 408
  %7 = load ptr, ptr %6, align 8
  %8 = load i32, ptr @proto_e1ap, align 4
  %9 = tail call ptr @p_get_proto_data(ptr noundef %7, ptr noundef %1, i32 noundef %8, i32 noundef 0)
  %.not.i = icmp eq ptr %9, null
  br i1 %.not.i, label %10, label %e1ap_get_private_data.exit

10:                                               ; preds = %4
  %11 = load ptr, ptr %6, align 8
  %12 = tail call noalias dereferenceable_or_null(32) ptr @wmem_alloc0(ptr noundef %11, i64 noundef 32) #7
  %13 = load ptr, ptr %6, align 8
  %14 = load i32, ptr @proto_e1ap, align 4
  tail call void @p_add_proto_data(ptr noundef %13, ptr noundef %1, i32 noundef %14, i32 noundef 0, ptr noundef %12)
  br label %e1ap_get_private_data.exit

e1ap_get_private_data.exit:                       ; preds = %4, %10
  %.0.i = phi ptr [ %9, %4 ], [ %12, %10 ]
  %15 = load i32, ptr %.0.i, align 8
  store i32 %15, ptr %5, align 4
  %16 = getelementptr inbounds nuw i8, ptr %.0.i, i64 4
  %17 = load i32, ptr %16, align 4
  %18 = getelementptr inbounds nuw i8, ptr %5, i64 4
  store i32 %17, ptr %18, align 4
  %19 = getelementptr inbounds nuw i8, ptr %.0.i, i64 8
  %20 = load i32, ptr %19, align 8
  %21 = getelementptr inbounds nuw i8, ptr %5, i64 8
  store i32 %20, ptr %21, align 4
  %22 = load ptr, ptr @e1ap_ies_dissector_table, align 8
  %23 = call i32 @dissector_try_uint_with_data(ptr noundef %22, i32 noundef %20, ptr noundef %0, ptr noundef %1, ptr noundef %2, i1 noundef zeroext false, ptr noundef nonnull %5)
  %.not = icmp eq i32 %23, 0
  br i1 %.not, label %26, label %24

24:                                               ; preds = %e1ap_get_private_data.exit
  %25 = call i32 @tvb_captured_length(ptr noundef %0)
  br label %26

26:                                               ; preds = %e1ap_get_private_data.exit, %24
  %27 = phi i32 [ %25, %24 ], [ 0, %e1ap_get_private_data.exit ]
  call void @llvm.lifetime.end.p0(i64 16, ptr nonnull %5) #6
  ret i32 %27
}